target datalayout = "e-m:e-p270:32:32-p271:32:32-p272:64:64-i64:64-i128:128-f80:128-n8:16:32:64-S128"
target triple = "x86_64-pc-linux-gnu"

%struct.qdldl = type { i32, ptr, ptr, ptr, ptr, ptr, ptr, ptr, ptr, i64, ptr, ptr, ptr, ptr, ptr, ptr, double, double, i64, i64, i64, ptr, ptr, ptr, ptr, ptr, ptr, ptr, ptr, ptr, ptr, ptr }
%struct.OSQPCscMatrix = type { i64, i64, ptr, ptr, ptr, i64, i64 }

; Function Attrs: nounwind uwtable
define void @free_linsys_solver_qdldl(ptr noundef %0) #0 {
  %2 = alloca ptr, align 8
  store ptr %0, ptr %2, align 8, !tbaa !3
  %3 = load ptr, ptr %2, align 8, !tbaa !3
  %4 = icmp ne ptr %3, null
  br i1 %4, label %5, label %199

5:                                                ; preds = %1
  %6 = load ptr, ptr %2, align 8, !tbaa !3
  %7 = getelementptr inbounds nuw %struct.qdldl, ptr %6, i32 0, i32 10
  %8 = load ptr, ptr %7, align 8, !tbaa !11
  %9 = icmp ne ptr %8, null
  br i1 %9, label %10, label %53

10:                                               ; preds = %5
  %11 = load ptr, ptr %2, align 8, !tbaa !3
  %12 = getelementptr inbounds nuw %struct.qdldl, ptr %11, i32 0, i32 10
  %13 = load ptr, ptr %12, align 8, !tbaa !11
  %14 = getelementptr inbounds nuw %struct.OSQPCscMatrix, ptr %13, i32 0, i32 2
  %15 = load ptr, ptr %14, align 8, !tbaa !19
  %16 = icmp ne ptr %15, null
  br i1 %16, label %17, label %23

17:                                               ; preds = %10
  %18 = load ptr, ptr %2, align 8, !tbaa !3
  %19 = getelementptr inbounds nuw %struct.qdldl, ptr %18, i32 0, i32 10
  %20 = load ptr, ptr %19, align 8, !tbaa !11
  %21 = getelementptr inbounds nuw %struct.OSQPCscMatrix, ptr %20, i32 0, i32 2
  %22 = load ptr, ptr %21, align 8, !tbaa !19
  call void @free(ptr noundef %22) #7
  br label %23

23:                                               ; preds = %17, %10
  %24 = load ptr, ptr %2, align 8, !tbaa !3
  %25 = getelementptr inbounds nuw %struct.qdldl, ptr %24, i32 0, i32 10
  %26 = load ptr, ptr %25, align 8, !tbaa !11
  %27 = getelementptr inbounds nuw %struct.OSQPCscMatrix, ptr %26, i32 0, i32 3
  %28 = load ptr, ptr %27, align 8, !tbaa !21
  %29 = icmp ne ptr %28, null
  br i1 %29, label %30, label %36

30:                                               ; preds = %23
  %31 = load ptr, ptr %2, align 8, !tbaa !3
  %32 = getelementptr inbounds nuw %struct.qdldl, ptr %31, i32 0, i32 10
  %33 = load ptr, ptr %32, align 8, !tbaa !11
  %34 = getelementptr inbounds nuw %struct.OSQPCscMatrix, ptr %33, i32 0, i32 3
  %35 = load ptr, ptr %34, align 8, !tbaa !21
  call void @free(ptr noundef %35) #7
  br label %36

36:                                               ; preds = %30, %23
  %37 = load ptr, ptr %2, align 8, !tbaa !3
  %38 = getelementptr inbounds nuw %struct.qdldl, ptr %37, i32 0, i32 10
  %39 = load ptr, ptr %38, align 8, !tbaa !11
  %40 = getelementptr inbounds nuw %struct.OSQPCscMatrix, ptr %39, i32 0, i32 4
  %41 = load ptr, ptr %40, align 8, !tbaa !22
  %42 = icmp ne ptr %41, null
  br i1 %42, label %43, label %49

43:                                               ; preds = %36
  %44 = load ptr, ptr %2, align 8, !tbaa !3
  %45 = getelementptr inbounds nuw %struct.qdldl, ptr %44, i32 0, i32 10
  %46 = load ptr, ptr %45, align 8, !tbaa !11
  %47 = getelementptr inbounds nuw %struct.OSQPCscMatrix, ptr %46, i32 0, i32 4
  %48 = load ptr, ptr %47, align 8, !tbaa !22
  call void @free(ptr noundef %48) #7
  br label %49

49:                                               ; preds = %43, %36
  %50 = load ptr, ptr %2, align 8, !tbaa !3
  %51 = getelementptr inbounds nuw %struct.qdldl, ptr %50, i32 0, i32 10
  %52 = load ptr, ptr %51, align 8, !tbaa !11
  call void @free(ptr noundef %52) #7
  br label %53

53:                                               ; preds = %49, %5
  %54 = load ptr, ptr %2, align 8, !tbaa !3
  %55 = getelementptr inbounds nuw %struct.qdldl, ptr %54, i32 0, i32 12
  %56 = load ptr, ptr %55, align 8, !tbaa !23
  %57 = icmp ne ptr %56, null
  br i1 %57, label %58, label %62

58:                                               ; preds = %53
  %59 = load ptr, ptr %2, align 8, !tbaa !3
  %60 = getelementptr inbounds nuw %struct.qdldl, ptr %59, i32 0, i32 12
  %61 = load ptr, ptr %60, align 8, !tbaa !23
  call void @free(ptr noundef %61) #7
  br label %62

62:                                               ; preds = %58, %53
  %63 = load ptr, ptr %2, align 8, !tbaa !3
  %64 = getelementptr inbounds nuw %struct.qdldl, ptr %63, i32 0, i32 11
  %65 = load ptr, ptr %64, align 8, !tbaa !24
  %66 = icmp ne ptr %65, null
  br i1 %66, label %67, label %71

67:                                               ; preds = %62
  %68 = load ptr, ptr %2, align 8, !tbaa !3
  %69 = getelementptr inbounds nuw %struct.qdldl, ptr %68, i32 0, i32 11
  %70 = load ptr, ptr %69, align 8, !tbaa !24
  call void @free(ptr noundef %70) #7
  br label %71

71:                                               ; preds = %67, %62
  %72 = load ptr, ptr %2, align 8, !tbaa !3
  %73 = getelementptr inbounds nuw %struct.qdldl, ptr %72, i32 0, i32 13
  %74 = load ptr, ptr %73, align 8, !tbaa !25
  %75 = icmp ne ptr %74, null
  br i1 %75, label %76, label %80

76:                                               ; preds = %71
  %77 = load ptr, ptr %2, align 8, !tbaa !3
  %78 = getelementptr inbounds nuw %struct.qdldl, ptr %77, i32 0, i32 13
  %79 = load ptr, ptr %78, align 8, !tbaa !25
  call void @free(ptr noundef %79) #7
  br label %80

80:                                               ; preds = %76, %71
  %81 = load ptr, ptr %2, align 8, !tbaa !3
  %82 = getelementptr inbounds nuw %struct.qdldl, ptr %81, i32 0, i32 14
  %83 = load ptr, ptr %82, align 8, !tbaa !26
  %84 = icmp ne ptr %83, null
  br i1 %84, label %85, label %89

85:                                               ; preds = %80
  %86 = load ptr, ptr %2, align 8, !tbaa !3
  %87 = getelementptr inbounds nuw %struct.qdldl, ptr %86, i32 0, i32 14
  %88 = load ptr, ptr %87, align 8, !tbaa !26
  call void @free(ptr noundef %88) #7
  br label %89

89:                                               ; preds = %85, %80
  %90 = load ptr, ptr %2, align 8, !tbaa !3
  %91 = getelementptr inbounds nuw %struct.qdldl, ptr %90, i32 0, i32 15
  %92 = load ptr, ptr %91, align 8, !tbaa !27
  %93 = icmp ne ptr %92, null
  br i1 %93, label %94, label %98

94:                                               ; preds = %89
  %95 = load ptr, ptr %2, align 8, !tbaa !3
  %96 = getelementptr inbounds nuw %struct.qdldl, ptr %95, i32 0, i32 15
  %97 = load ptr, ptr %96, align 8, !tbaa !27
  call void @free(ptr noundef %97) #7
  br label %98

98:                                               ; preds = %94, %89
  %99 = load ptr, ptr %2, align 8, !tbaa !3
  %100 = getelementptr inbounds nuw %struct.qdldl, ptr %99, i32 0, i32 21
  %101 = load ptr, ptr %100, align 8, !tbaa !28
  %102 = icmp ne ptr %101, null
  br i1 %102, label %103, label %107

103:                                              ; preds = %98
  %104 = load ptr, ptr %2, align 8, !tbaa !3
  %105 = getelementptr inbounds nuw %struct.qdldl, ptr %104, i32 0, i32 21
  %106 = load ptr, ptr %105, align 8, !tbaa !28
  call void @csc_spfree(ptr noundef %106)
  br label %107

107:                                              ; preds = %103, %98
  %108 = load ptr, ptr %2, align 8, !tbaa !3
  %109 = getelementptr inbounds nuw %struct.qdldl, ptr %108, i32 0, i32 22
  %110 = load ptr, ptr %109, align 8, !tbaa !29
  %111 = icmp ne ptr %110, null
  br i1 %111, label %112, label %116

112:                                              ; preds = %107
  %113 = load ptr, ptr %2, align 8, !tbaa !3
  %114 = getelementptr inbounds nuw %struct.qdldl, ptr %113, i32 0, i32 22
  %115 = load ptr, ptr %114, align 8, !tbaa !29
  call void @free(ptr noundef %115) #7
  br label %116

116:                                              ; preds = %112, %107
  %117 = load ptr, ptr %2, align 8, !tbaa !3
  %118 = getelementptr inbounds nuw %struct.qdldl, ptr %117, i32 0, i32 23
  %119 = load ptr, ptr %118, align 8, !tbaa !30
  %120 = icmp ne ptr %119, null
  br i1 %120, label %121, label %125

121:                                              ; preds = %116
  %122 = load ptr, ptr %2, align 8, !tbaa !3
  %123 = getelementptr inbounds nuw %struct.qdldl, ptr %122, i32 0, i32 23
  %124 = load ptr, ptr %123, align 8, !tbaa !30
  call void @free(ptr noundef %124) #7
  br label %125

125:                                              ; preds = %121, %116
  %126 = load ptr, ptr %2, align 8, !tbaa !3
  %127 = getelementptr inbounds nuw %struct.qdldl, ptr %126, i32 0, i32 24
  %128 = load ptr, ptr %127, align 8, !tbaa !31
  %129 = icmp ne ptr %128, null
  br i1 %129, label %130, label %134

130:                                              ; preds = %125
  %131 = load ptr, ptr %2, align 8, !tbaa !3
  %132 = getelementptr inbounds nuw %struct.qdldl, ptr %131, i32 0, i32 24
  %133 = load ptr, ptr %132, align 8, !tbaa !31
  call void @free(ptr noundef %133) #7
  br label %134

134:                                              ; preds = %130, %125
  %135 = load ptr, ptr %2, align 8, !tbaa !3
  %136 = getelementptr inbounds nuw %struct.qdldl, ptr %135, i32 0, i32 31
  %137 = load ptr, ptr %136, align 8, !tbaa !32
  %138 = icmp ne ptr %137, null
  br i1 %138, label %139, label %143

139:                                              ; preds = %134
  %140 = load ptr, ptr %2, align 8, !tbaa !3
  %141 = getelementptr inbounds nuw %struct.qdldl, ptr %140, i32 0, i32 31
  %142 = load ptr, ptr %141, align 8, !tbaa !32
  call void @free(ptr noundef %142) #7
  br label %143

143:                                              ; preds = %139, %134
  %144 = load ptr, ptr %2, align 8, !tbaa !3
  %145 = getelementptr inbounds nuw %struct.qdldl, ptr %144, i32 0, i32 25
  %146 = load ptr, ptr %145, align 8, !tbaa !33
  %147 = icmp ne ptr %146, null
  br i1 %147, label %148, label %152

148:                                              ; preds = %143
  %149 = load ptr, ptr %2, align 8, !tbaa !3
  %150 = getelementptr inbounds nuw %struct.qdldl, ptr %149, i32 0, i32 25
  %151 = load ptr, ptr %150, align 8, !tbaa !33
  call void @free(ptr noundef %151) #7
  br label %152

152:                                              ; preds = %148, %143
  %153 = load ptr, ptr %2, align 8, !tbaa !3
  %154 = getelementptr inbounds nuw %struct.qdldl, ptr %153, i32 0, i32 26
  %155 = load ptr, ptr %154, align 8, !tbaa !34
  %156 = icmp ne ptr %155, null
  br i1 %156, label %157, label %161

157:                                              ; preds = %152
  %158 = load ptr, ptr %2, align 8, !tbaa !3
  %159 = getelementptr inbounds nuw %struct.qdldl, ptr %158, i32 0, i32 26
  %160 = load ptr, ptr %159, align 8, !tbaa !34
  call void @free(ptr noundef %160) #7
  br label %161

161:                                              ; preds = %157, %152
  %162 = load ptr, ptr %2, align 8, !tbaa !3
  %163 = getelementptr inbounds nuw %struct.qdldl, ptr %162, i32 0, i32 27
  %164 = load ptr, ptr %163, align 8, !tbaa !35
  %165 = icmp ne ptr %164, null
  br i1 %165, label %166, label %170

166:                                              ; preds = %161
  %167 = load ptr, ptr %2, align 8, !tbaa !3
  %168 = getelementptr inbounds nuw %struct.qdldl, ptr %167, i32 0, i32 27
  %169 = load ptr, ptr %168, align 8, !tbaa !35
  call void @free(ptr noundef %169) #7
  br label %170

170:                                              ; preds = %166, %161
  %171 = load ptr, ptr %2, align 8, !tbaa !3
  %172 = getelementptr inbounds nuw %struct.qdldl, ptr %171, i32 0, i32 28
  %173 = load ptr, ptr %172, align 8, !tbaa !36
  %174 = icmp ne ptr %173, null
  br i1 %174, label %175, label %179

175:                                              ; preds = %170
  %176 = load ptr, ptr %2, align 8, !tbaa !3
  %177 = getelementptr inbounds nuw %struct.qdldl, ptr %176, i32 0, i32 28
  %178 = load ptr, ptr %177, align 8, !tbaa !36
  call void @free(ptr noundef %178) #7
  br label %179

179:                                              ; preds = %175, %170
  %180 = load ptr, ptr %2, align 8, !tbaa !3
  %181 = getelementptr inbounds nuw %struct.qdldl, ptr %180, i32 0, i32 29
  %182 = load ptr, ptr %181, align 8, !tbaa !37
  %183 = icmp ne ptr %182, null
  br i1 %183, label %184, label %188

184:                                              ; preds = %179
  %185 = load ptr, ptr %2, align 8, !tbaa !3
  %186 = getelementptr inbounds nuw %struct.qdldl, ptr %185, i32 0, i32 29
  %187 = load ptr, ptr %186, align 8, !tbaa !37
  call void @free(ptr noundef %187) #7
  br label %188

188:                                              ; preds = %184, %179
  %189 = load ptr, ptr %2, align 8, !tbaa !3
  %190 = getelementptr inbounds nuw %struct.qdldl, ptr %189, i32 0, i32 30
  %191 = load ptr, ptr %190, align 8, !tbaa !38
  %192 = icmp ne ptr %191, null
  br i1 %192, label %193, label %197

193:                                              ; preds = %188
  %194 = load ptr, ptr %2, align 8, !tbaa !3
  %195 = getelementptr inbounds nuw %struct.qdldl, ptr %194, i32 0, i32 30
  %196 = load ptr, ptr %195, align 8, !tbaa !38
  call void @free(ptr noundef %196) #7
  br label %197

197:                                              ; preds = %193, %188
  %198 = load ptr, ptr %2, align 8, !tbaa !3
  call void @free(ptr noundef %198) #7
  br label %199

199:                                              ; preds = %197, %1
  ret void
}