; Function Attrs: nounwind uwtable
define void @free_linsys_solver_qdldl(ptr noundef captures(address_is_null) %0) #1 {
  %.not = icmp eq ptr %0, null
  br i1 %.not, label %86, label %2

2:                                                ; preds = %1
  %3 = getelementptr inbounds nuw i8, ptr %0, i64 80
  %4 = load ptr, ptr %3, align 8, !tbaa !3
  %.not62 = icmp eq ptr %4, null
  br i1 %.not62, label %21, label %5

5:                                                ; preds = %2
  %6 = getelementptr inbounds nuw i8, ptr %4, i64 16
  %7 = load ptr, ptr %6, align 8, !tbaa !14
  %.not63 = icmp eq ptr %7, null
  br i1 %.not63, label %9, label %8

8:                                                ; preds = %5
  tail call void @free(ptr noundef nonnull %7) #12
  %.pre = load ptr, ptr %3, align 8, !tbaa !3
  br label %9

9:                                                ; preds = %8, %5
  %10 = phi ptr [ %.pre, %8 ], [ %4, %5 ]
  %11 = getelementptr inbounds nuw i8, ptr %10, i64 24
  %12 = load ptr, ptr %11, align 8, !tbaa !16
  %.not64 = icmp eq ptr %12, null
  br i1 %.not64, label %14, label %13

13:                                               ; preds = %9
  tail call void @free(ptr noundef nonnull %12) #12
  %.pre82 = load ptr, ptr %3, align 8, !tbaa !3
  br label %14

14:                                               ; preds = %13, %9
  %15 = phi ptr [ %.pre82, %13 ], [ %10, %9 ]
  %16 = getelementptr inbounds nuw i8, ptr %15, i64 32
  %17 = load ptr, ptr %16, align 8, !tbaa !17
  %.not65 = icmp eq ptr %17, null
  br i1 %.not65, label %19, label %18

18:                                               ; preds = %14
  tail call void @free(ptr noundef nonnull %17) #12
  %.pre83 = load ptr, ptr %3, align 8, !tbaa !3
  br label %19

19:                                               ; preds = %18, %14
  %20 = phi ptr [ %.pre83, %18 ], [ %15, %14 ]
  tail call void @free(ptr noundef %20) #12
  br label %21

21:                                               ; preds = %19, %2
  %22 = getelementptr inbounds nuw i8, ptr %0, i64 96
  %23 = load ptr, ptr %22, align 8, !tbaa !18
  %.not66 = icmp eq ptr %23, null
  br i1 %.not66, label %25, label %24

24:                                               ; preds = %21
  tail call void @free(ptr noundef nonnull %23) #12
  br label %25

25:                                               ; preds = %24, %21
  %26 = getelementptr inbounds nuw i8, ptr %0, i64 88
  %27 = load ptr, ptr %26, align 8, !tbaa !19
  %.not67 = icmp eq ptr %27, null
  br i1 %.not67, label %29, label %28

28:                                               ; preds = %25
  tail call void @free(ptr noundef nonnull %27) #12
  br label %29

29:                                               ; preds = %28, %25
  %30 = getelementptr inbounds nuw i8, ptr %0, i64 104
  %31 = load ptr, ptr %30, align 8, !tbaa !20
  %.not68 = icmp eq ptr %31, null
  br i1 %.not68, label %33, label %32

32:                                               ; preds = %29
  tail call void @free(ptr noundef nonnull %31) #12
  br label %33

33:                                               ; preds = %32, %29
  %34 = getelementptr inbounds nuw i8, ptr %0, i64 112
  %35 = load ptr, ptr %34, align 8, !tbaa !21
  %.not69 = icmp eq ptr %35, null
  br i1 %.not69, label %37, label %36

36:                                               ; preds = %33
  tail call void @free(ptr noundef nonnull %35) #12
  br label %37

37:                                               ; preds = %36, %33
  %38 = getelementptr inbounds nuw i8, ptr %0, i64 120
  %39 = load ptr, ptr %38, align 8, !tbaa !22
  %.not70 = icmp eq ptr %39, null
  br i1 %.not70, label %41, label %40

40:                                               ; preds = %37
  tail call void @free(ptr noundef nonnull %39) #12
  br label %41

41:                                               ; preds = %40, %37
  %42 = getelementptr inbounds nuw i8, ptr %0, i64 168
  %43 = load ptr, ptr %42, align 8, !tbaa !23
  %.not71 = icmp eq ptr %43, null
  br i1 %.not71, label %45, label %44

44:                                               ; preds = %41
  tail call void @csc_spfree(ptr noundef nonnull %43) #12
  br label %45

45:                                               ; preds = %44, %41
  %46 = getelementptr inbounds nuw i8, ptr %0, i64 176
  %47 = load ptr, ptr %46, align 8, !tbaa !24
  %.not72 = icmp eq ptr %47, null
  br i1 %.not72, label %49, label %48

48:                                               ; preds = %45
  tail call void @free(ptr noundef nonnull %47) #12
  br label %49

49:                                               ; preds = %48, %45
  %50 = getelementptr inbounds nuw i8, ptr %0, i64 184
  %51 = load ptr, ptr %50, align 8, !tbaa !25
  %.not73 = icmp eq ptr %51, null
  br i1 %.not73, label %53, label %52

52:                                               ; preds = %49
  tail call void @free(ptr noundef nonnull %51) #12
  br label %53

53:                                               ; preds = %52, %49
  %54 = getelementptr inbounds nuw i8, ptr %0, i64 192
  %55 = load ptr, ptr %54, align 8, !tbaa !26
  %.not74 = icmp eq ptr %55, null
  br i1 %.not74, label %57, label %56

56:                                               ; preds = %53
  tail call void @free(ptr noundef nonnull %55) #12
  br label %57

57:                                               ; preds = %56, %53
  %58 = getelementptr inbounds nuw i8, ptr %0, i64 248
  %59 = load ptr, ptr %58, align 8, !tbaa !27
  %.not75 = icmp eq ptr %59, null
  br i1 %.not75, label %61, label %60

60:                                               ; preds = %57
  tail call void @free(ptr noundef nonnull %59) #12
  br label %61

61:                                               ; preds = %60, %57
  %62 = getelementptr inbounds nuw i8, ptr %0, i64 200
  %63 = load ptr, ptr %62, align 8, !tbaa !28
  %.not76 = icmp eq ptr %63, null
  br i1 %.not76, label %65, label %64

64:                                               ; preds = %61
  tail call void @free(ptr noundef nonnull %63) #12
  br label %65

65:                                               ; preds = %64, %61
  %66 = getelementptr inbounds nuw i8, ptr %0, i64 208
  %67 = load ptr, ptr %66, align 8, !tbaa !29
  %.not77 = icmp eq ptr %67, null
  br i1 %.not77, label %69, label %68

68:                                               ; preds = %65
  tail call void @free(ptr noundef nonnull %67) #12
  br label %69

69:                                               ; preds = %68, %65
  %70 = getelementptr inbounds nuw i8, ptr %0, i64 216
  %71 = load ptr, ptr %70, align 8, !tbaa !30
  %.not78 = icmp eq ptr %71, null
  br i1 %.not78, label %73, label %72

72:                                               ; preds = %69
  tail call void @free(ptr noundef nonnull %71) #12
  br label %73

73:                                               ; preds = %72, %69
  %74 = getelementptr inbounds nuw i8, ptr %0, i64 224
  %75 = load ptr, ptr %74, align 8, !tbaa !31
  %.not79 = icmp eq ptr %75, null
  br i1 %.not79, label %77, label %76

76:                                               ; preds = %73
  tail call void @free(ptr noundef nonnull %75) #12
  br label %77

77:                                               ; preds = %76, %73
  %78 = getelementptr inbounds nuw i8, ptr %0, i64 232
  %79 = load ptr, ptr %78, align 8, !tbaa !32
  %.not80 = icmp eq ptr %79, null
  br i1 %.not80, label %81, label %80

80:                                               ; preds = %77
  tail call void @free(ptr noundef nonnull %79) #12
  br label %81

81:                                               ; preds = %80, %77
  %82 = getelementptr inbounds nuw i8, ptr %0, i64 240
  %83 = load ptr, ptr %82, align 8, !tbaa !33
  %.not81 = icmp eq ptr %83, null
  br i1 %.not81, label %85, label %84

84:                                               ; preds = %81
  tail call void @free(ptr noundef nonnull %83) #12
  br label %85

85:                                               ; preds = %84, %81
  tail call void @free(ptr noundef nonnull %0) #12
  br label %86

86:                                               ; preds = %85, %1
  ret void
}